target datalayout = "e-m:e-p270:32:32-p271:32:32-p272:64:64-i64:64-i128:128-f80:128-n8:16:32:64-S128"
target triple = "x86_64-pc-linux-gnu"

%"class.llvm::DbgMarker" = type { ptr, %"class.llvm::simple_ilist.91" }
%"class.llvm::simple_ilist.91" = type { %"class.llvm::ilist_sentinel.93" }
%"class.llvm::ilist_sentinel.93" = type { %"class.llvm::ilist_node_impl.94" }
%"class.llvm::ilist_node_impl.94" = type { %"class.llvm::ilist_node_base.3" }
%"class.llvm::ilist_node_base.3" = type { %"class.llvm::ilist_detail::node_base_prevnext.4" }
%"class.llvm::ilist_detail::node_base_prevnext.4" = type { ptr, ptr }
%"class.llvm::Value" = type { i8, i8, i16, i32, ptr, ptr }
%"class.llvm::ilist_node_impl" = type { %"class.llvm::ilist_node_base" }
%"class.llvm::ilist_node_base" = type { %"class.llvm::ilist_detail::node_base_prevnext", %"class.llvm::ilist_detail::node_base_parent" }
%"class.llvm::ilist_detail::node_base_prevnext" = type { ptr, ptr }
%"class.llvm::ilist_detail::node_base_parent" = type { ptr }
%"class.llvm::Instruction" = type { %"class.llvm::User", %"class.llvm::ilist_node_with_parent", %"class.llvm::DebugLoc", i32, ptr }
%"class.llvm::User" = type { %"class.llvm::Value" }
%"class.llvm::ilist_node_with_parent" = type { %"class.llvm::ilist_node" }
%"class.llvm::ilist_node" = type { %"class.llvm::ilist_node_impl" }
%"class.llvm::DebugLoc" = type { %"class.llvm::TypedTrackingMDRef" }
%"class.llvm::TypedTrackingMDRef" = type { %"class.llvm::TrackingMDRef" }
%"class.llvm::TrackingMDRef" = type { ptr }
%"class.llvm::iterator_range" = type { %"class.llvm::ilist_iterator", %"class.llvm::ilist_iterator" }
%"class.llvm::ilist_iterator" = type { ptr }
%"class.std::optional.97" = type { %"struct.std::_Optional_base.98" }
%"struct.std::_Optional_base.98" = type { %"struct.std::_Optional_payload.100" }
%"struct.std::_Optional_payload.100" = type { %"struct.std::_Optional_payload_base.base", [7 x i8] }
%"struct.std::_Optional_payload_base.base" = type <{ %"union.std::_Optional_payload_base<llvm::ilist_iterator<llvm::ilist_detail::node_options<llvm::DbgRecord, false, false, void, false, void>, false, false>>::_Storage", i8 }>
%"union.std::_Optional_payload_base<llvm::ilist_iterator<llvm::ilist_detail::node_options<llvm::DbgRecord, false, false, void, false, void>, false, false>>::_Storage" = type { %"class.llvm::ilist_iterator" }

@_ZN4llvm9DbgMarker14EmptyDbgMarkerE = external global %"class.llvm::DbgMarker", align 8

; Function Attrs: mustprogress nounwind uwtable
define linkonce_odr hidden void @_ZN4llvm14iterator_rangeINS_14ilist_iteratorINS_12ilist_detail12node_optionsINS_9DbgRecordELb0ELb0EvLb0EvEELb0ELb0EEEEC2ES6_S6_(ptr noundef nonnull align 8 dereferenceable(16) %0, ptr %1, ptr %2) unnamed_addr #0 comdat align 2 {
  %4 = alloca %"class.llvm::ilist_iterator", align 8
  %5 = alloca %"class.llvm::ilist_iterator", align 8
  %6 = alloca ptr, align 8
  %7 = getelementptr inbounds nuw %"class.llvm::ilist_iterator", ptr %4, i32 0, i32 0
  store ptr %1, ptr %7, align 8
  %8 = getelementptr inbounds nuw %"class.llvm::ilist_iterator", ptr %5, i32 0, i32 0
  store ptr %2, ptr %8, align 8
  store ptr %0, ptr %6, align 8
  %9 = load ptr, ptr %6, align 8
  %10 = getelementptr inbounds nuw %"class.llvm::iterator_range", ptr %9, i32 0, i32 0
  call void @llvm.memcpy.p0.p0.i64(ptr align 8 %10, ptr align 8 %4, i64 8, i1 false)
  %11 = getelementptr inbounds nuw %"class.llvm::iterator_range", ptr %9, i32 0, i32 1
  call void @llvm.memcpy.p0.p0.i64(ptr align 8 %11, ptr align 8 %5, i64 8, i1 false)
  ret void
}

; Function Attrs: mustprogress nounwind uwtable
define linkonce_odr hidden void @_ZN4llvm14ilist_iteratorINS_12ilist_detail12node_optionsINS_9DbgRecordELb0ELb0EvLb0EvEELb0ELb0EEC2ERNS_15ilist_node_implIS4_EE(ptr noundef nonnull align 8 dereferenceable(8) %0, ptr noundef nonnull align 8 dereferenceable(16) %1) unnamed_addr #0 comdat align 2 {
  %3 = alloca ptr, align 8
  %4 = alloca ptr, align 8
  store ptr %0, ptr %3, align 8
  store ptr %1, ptr %4, align 8
  %5 = load ptr, ptr %3, align 8
  %6 = getelementptr inbounds nuw %"class.llvm::ilist_iterator", ptr %5, i32 0, i32 0
  %7 = load ptr, ptr %4, align 8
  store ptr %7, ptr %6, align 8
  ret void
}

; Function Attrs: mustprogress nounwind uwtable
define linkonce_odr hidden noundef ptr @_ZN4llvm12ilist_detail16node_base_parentINS_10BasicBlockEE17getNodeBaseParentEv(ptr noundef nonnull align 8 dereferenceable(8) %0) #0 comdat align 2 {
  %2 = alloca ptr, align 8
  store ptr %0, ptr %2, align 8
  %3 = load ptr, ptr %2, align 8
  %4 = getelementptr inbounds nuw %"class.llvm::ilist_detail::node_base_parent", ptr %3, i32 0, i32 0
  %5 = load ptr, ptr %4, align 8
  ret ptr %5
}

; Function Attrs: mustprogress nounwind uwtable
define linkonce_odr { ptr, ptr } @_ZN4llvm10make_rangeINS_14ilist_iteratorINS_12ilist_detail12node_optionsINS_9DbgRecordELb0ELb0EvLb0EvEELb0ELb0EEEEENS_14iterator_rangeIT_EES8_S8_(ptr %0, ptr %1) #0 comdat {
  %3 = alloca %"class.llvm::iterator_range", align 8
  %4 = alloca %"class.llvm::ilist_iterator", align 8
  %5 = alloca %"class.llvm::ilist_iterator", align 8
  %6 = alloca %"class.llvm::ilist_iterator", align 8
  %7 = alloca %"class.llvm::ilist_iterator", align 8
  %8 = getelementptr inbounds nuw %"class.llvm::ilist_iterator", ptr %4, i32 0, i32 0
  store ptr %0, ptr %8, align 8
  %9 = getelementptr inbounds nuw %"class.llvm::ilist_iterator", ptr %5, i32 0, i32 0
  store ptr %1, ptr %9, align 8
  call void @llvm.memcpy.p0.p0.i64(ptr align 8 %6, ptr align 8 %4, i64 8, i1 false)
  call void @llvm.memcpy.p0.p0.i64(ptr align 8 %7, ptr align 8 %5, i64 8, i1 false)
  %10 = getelementptr inbounds nuw %"class.llvm::ilist_iterator", ptr %6, i32 0, i32 0
  %11 = load ptr, ptr %10, align 8
  %12 = getelementptr inbounds nuw %"class.llvm::ilist_iterator", ptr %7, i32 0, i32 0
  %13 = load ptr, ptr %12, align 8
  call void @_ZN4llvm14iterator_rangeINS_14ilist_iteratorINS_12ilist_detail12node_optionsINS_9DbgRecordELb0ELb0EvLb0EvEELb0ELb0EEEEC2ES6_S6_(ptr noundef nonnull align 8 dereferenceable(16) %3, ptr %11, ptr %13)
  %14 = load { ptr, ptr }, ptr %3, align 8
  ret { ptr, ptr } %14
}

; Function Attrs: mustprogress nounwind uwtable
define linkonce_odr hidden ptr @_ZN4llvm12simple_ilistINS_9DbgRecordEJEE3endEv(ptr noundef nonnull align 8 dereferenceable(16) %0) #0 comdat align 2 {
  %2 = alloca %"class.llvm::ilist_iterator", align 8
  %3 = alloca ptr, align 8
  store ptr %0, ptr %3, align 8
  %4 = load ptr, ptr %3, align 8
  %5 = getelementptr inbounds nuw %"class.llvm::simple_ilist.91", ptr %4, i32 0, i32 0
  call void @_ZN4llvm14ilist_iteratorINS_12ilist_detail12node_optionsINS_9DbgRecordELb0ELb0EvLb0EvEELb0ELb0EEC2ERNS_15ilist_node_implIS4_EE(ptr noundef nonnull align 8 dereferenceable(8) %2, ptr noundef nonnull align 8 dereferenceable(16) %5)
  %6 = getelementptr inbounds nuw %"class.llvm::ilist_iterator", ptr %2, i32 0, i32 0
  %7 = load ptr, ptr %6, align 8
  ret ptr %7
}

; Function Attrs: mustprogress nounwind uwtable
define linkonce_odr hidden noundef ptr @_ZN4llvm12ilist_detail18node_parent_accessINS_15ilist_node_implINS0_12node_optionsINS_11InstructionELb0ELb0EvLb1ENS_10BasicBlockEEEEES5_E9getParentEv(ptr noundef nonnull align 1 dereferenceable(1) %0) #0 comdat align 2 {
  %2 = alloca ptr, align 8
  store ptr %0, ptr %2, align 8
  %3 = load ptr, ptr %2, align 8
  %4 = getelementptr inbounds i8, ptr %3, i64 16
  %5 = call noundef ptr @_ZN4llvm12ilist_detail16node_base_parentINS_10BasicBlockEE17getNodeBaseParentEv(ptr noundef nonnull align 8 dereferenceable(8) %4)
  ret ptr %5
}

; Function Attrs: mustprogress nounwind uwtable
define linkonce_odr hidden { ptr, ptr } @_ZN4llvm9DbgMarker22getEmptyDbgRecordRangeEv() #0 comdat align 2 {
  %1 = alloca %"class.llvm::iterator_range", align 8
  %2 = alloca %"class.llvm::ilist_iterator", align 8
  %3 = alloca %"class.llvm::ilist_iterator", align 8
  %4 = call ptr @_ZN4llvm12simple_ilistINS_9DbgRecordEJEE3endEv(ptr noundef nonnull align 8 dereferenceable(16) getelementptr inbounds nuw (%"class.llvm::DbgMarker", ptr @_ZN4llvm9DbgMarker14EmptyDbgMarkerE, i32 0, i32 1))
  %5 = getelementptr inbounds nuw %"class.llvm::ilist_iterator", ptr %2, i32 0, i32 0
  store ptr %4, ptr %5, align 8
  %6 = call ptr @_ZN4llvm12simple_ilistINS_9DbgRecordEJEE3endEv(ptr noundef nonnull align 8 dereferenceable(16) getelementptr inbounds nuw (%"class.llvm::DbgMarker", ptr @_ZN4llvm9DbgMarker14EmptyDbgMarkerE, i32 0, i32 1))
  %7 = getelementptr inbounds nuw %"class.llvm::ilist_iterator", ptr %3, i32 0, i32 0
  store ptr %6, ptr %7, align 8
  %8 = getelementptr inbounds nuw %"class.llvm::ilist_iterator", ptr %2, i32 0, i32 0
  %9 = load ptr, ptr %8, align 8
  %10 = getelementptr inbounds nuw %"class.llvm::ilist_iterator", ptr %3, i32 0, i32 0
  %11 = load ptr, ptr %10, align 8
  %12 = call { ptr, ptr } @_ZN4llvm10make_rangeINS_14ilist_iteratorINS_12ilist_detail12node_optionsINS_9DbgRecordELb0ELb0EvLb0EvEELb0ELb0EEEEENS_14iterator_rangeIT_EES8_S8_(ptr %9, ptr %11)
  %13 = getelementptr inbounds nuw { ptr, ptr }, ptr %1, i32 0, i32 0
  %14 = extractvalue { ptr, ptr } %12, 0
  store ptr %14, ptr %13, align 8
  %15 = getelementptr inbounds nuw { ptr, ptr }, ptr %1, i32 0, i32 1
  %16 = extractvalue { ptr, ptr } %12, 1
  store ptr %16, ptr %15, align 8
  %17 = load { ptr, ptr }, ptr %1, align 8
  ret { ptr, ptr } %17
}

; Function Attrs: mustprogress nounwind uwtable
define dso_local { ptr, ptr } @_ZN4llvm11Instruction18cloneDebugInfoFromEPKS0_St8optionalINS_14ilist_iteratorINS_12ilist_detail12node_optionsINS_9DbgRecordELb0ELb0EvLb0EvEELb0ELb0EEEEb(ptr noundef nonnull align 8 dereferenceable(72) %0, ptr noundef %1, ptr %2, i8 %3, i1 noundef zeroext %4) #0 align 2 {
  %6 = alloca %"class.llvm::iterator_range", align 8
  %7 = alloca %"class.std::optional.97", align 8
  %8 = alloca ptr, align 8
  %9 = alloca ptr, align 8
  %10 = alloca i8, align 1
  %11 = alloca %"class.std::optional.97", align 8
  %12 = getelementptr inbounds nuw { ptr, i8 }, ptr %7, i32 0, i32 0
  store ptr %2, ptr %12, align 8
  %13 = getelementptr inbounds nuw { ptr, i8 }, ptr %7, i32 0, i32 1
  store i8 %3, ptr %13, align 8
  store ptr %0, ptr %8, align 8
  store ptr %1, ptr %9, align 8
  %14 = zext i1 %4 to i8
  store i8 %14, ptr %10, align 1
  %15 = load ptr, ptr %8, align 8
  %16 = load ptr, ptr %9, align 8
  %17 = getelementptr inbounds nuw %"class.llvm::Instruction", ptr %16, i32 0, i32 4
  %18 = load ptr, ptr %17, align 8
  %19 = icmp ne ptr %18, null
  br i1 %19, label %26, label %20

20:                                               ; preds = %5
  %21 = call { ptr, ptr } @_ZN4llvm9DbgMarker22getEmptyDbgRecordRangeEv()
  %22 = getelementptr inbounds nuw { ptr, ptr }, ptr %6, i32 0, i32 0
  %23 = extractvalue { ptr, ptr } %21, 0
  store ptr %23, ptr %22, align 8
  %24 = getelementptr inbounds nuw { ptr, ptr }, ptr %6, i32 0, i32 1
  %25 = extractvalue { ptr, ptr } %21, 1
  store ptr %25, ptr %24, align 8
  br label %51

26:                                               ; preds = %5
  %27 = getelementptr inbounds nuw %"class.llvm::Instruction", ptr %15, i32 0, i32 4
  %28 = load ptr, ptr %27, align 8
  %29 = icmp ne ptr %28, null
  br i1 %29, label %34, label %30

30:                                               ; preds = %26
  %31 = getelementptr inbounds i8, ptr %15, i64 24
  %32 = call noundef ptr @_ZN4llvm12ilist_detail18node_parent_accessINS_15ilist_node_implINS0_12node_optionsINS_11InstructionELb0ELb0EvLb1ENS_10BasicBlockEEEEES5_E9getParentEv(ptr noundef nonnull align 1 dereferenceable(1) %31)
  %33 = call noundef ptr @_ZN4llvm10BasicBlock12createMarkerEPNS_11InstructionE(ptr noundef nonnull align 8 dereferenceable(80) %32, ptr noundef %15)
  br label %34

34:                                               ; preds = %30, %26
  %35 = getelementptr inbounds nuw %"class.llvm::Instruction", ptr %15, i32 0, i32 4
  %36 = load ptr, ptr %35, align 8
  %37 = load ptr, ptr %9, align 8
  %38 = getelementptr inbounds nuw %"class.llvm::Instruction", ptr %37, i32 0, i32 4
  %39 = load ptr, ptr %38, align 8
  call void @llvm.memcpy.p0.p0.i64(ptr align 8 %11, ptr align 8 %7, i64 16, i1 false)
  %40 = load i8, ptr %10, align 1
  %41 = trunc i8 %40 to i1
  %42 = getelementptr inbounds nuw { ptr, i8 }, ptr %11, i32 0, i32 0
  %43 = load ptr, ptr %42, align 8
  %44 = getelementptr inbounds nuw { ptr, i8 }, ptr %11, i32 0, i32 1
  %45 = load i8, ptr %44, align 8
  %46 = call { ptr, ptr } @_ZN4llvm9DbgMarker18cloneDebugInfoFromEPS0_St8optionalINS_14ilist_iteratorINS_12ilist_detail12node_optionsINS_9DbgRecordELb0ELb0EvLb0EvEELb0ELb0EEEEb(ptr noundef nonnull align 8 dereferenceable(24) %36, ptr noundef %39, ptr %43, i8 %45, i1 noundef zeroext %41)
  %47 = getelementptr inbounds nuw { ptr, ptr }, ptr %6, i32 0, i32 0
  %48 = extractvalue { ptr, ptr } %46, 0
  store ptr %48, ptr %47, align 8
  %49 = getelementptr inbounds nuw { ptr, ptr }, ptr %6, i32 0, i32 1
  %50 = extractvalue { ptr, ptr } %46, 1
  store ptr %50, ptr %49, align 8
  br label %51

51:                                               ; preds = %34, %20
  %52 = load { ptr, ptr }, ptr %6, align 8
  ret { ptr, ptr } %52
}