; Function Attrs: mustprogress nounwind uwtable
define dso_local { ptr, ptr } @_ZN4llvm11Instruction18cloneDebugInfoFromEPKS0_St8optionalINS_14ilist_iteratorINS_12ilist_detail12node_optionsINS_9DbgRecordELb0ELb0EvLb0EvEELb0ELb0EEEEb(ptr noundef nonnull align 8 dereferenceable(72) %0, ptr nocapture noundef readonly %1, ptr %2, i8 %3, i1 noundef zeroext %4) local_unnamed_addr #3 align 2 {
  %6 = getelementptr inbounds nuw i8, ptr %1, i64 64
  %7 = load ptr, ptr %6, align 8
  %.not = icmp eq ptr %7, null
  br i1 %.not, label %19, label %8

8:                                                ; preds = %5
  %9 = getelementptr inbounds nuw i8, ptr %0, i64 64
  %10 = load ptr, ptr %9, align 8
  %.not7 = icmp eq ptr %10, null
  br i1 %.not7, label %11, label %15

11:                                               ; preds = %8
  %12 = getelementptr inbounds i8, ptr %0, i64 40
  %13 = load ptr, ptr %12, align 8
  %14 = tail call noundef ptr @_ZN4llvm10BasicBlock12createMarkerEPNS_11InstructionE(ptr noundef nonnull align 8 dereferenceable(80) %13, ptr noundef nonnull %0) #21
  %.pre = load ptr, ptr %9, align 8
  %.pre9 = load ptr, ptr %6, align 8
  br label %15

15:                                               ; preds = %11, %8
  %16 = phi ptr [ %.pre9, %11 ], [ %7, %8 ]
  %17 = phi ptr [ %.pre, %11 ], [ %10, %8 ]
  %18 = tail call { ptr, ptr } @_ZN4llvm9DbgMarker18cloneDebugInfoFromEPS0_St8optionalINS_14ilist_iteratorINS_12ilist_detail12node_optionsINS_9DbgRecordELb0ELb0EvLb0EvEELb0ELb0EEEEb(ptr noundef nonnull align 8 dereferenceable(24) %17, ptr noundef %16, ptr %2, i8 %3, i1 noundef zeroext %4) #21
  br label %19

19:                                               ; preds = %5, %15
  %.pn = phi { ptr, ptr } [ %18, %15 ], [ { ptr getelementptr inbounds nuw (i8, ptr @_ZN4llvm9DbgMarker14EmptyDbgMarkerE, i64 8), ptr getelementptr inbounds nuw (i8, ptr @_ZN4llvm9DbgMarker14EmptyDbgMarkerE, i64 8) }, %5 ]
  ret { ptr, ptr } %.pn
}